; Function Attrs: mustprogress nofree norecurse nosync nounwind willreturn memory(argmem: read) uwtable
define i32 @cli_hm_have_wild(ptr noundef readonly %0, i32 noundef %1) local_unnamed_addr #5 {
  %.not = icmp eq ptr %0, null
  br i1 %.not, label %10, label %3

3:                                                ; preds = %2
  %4 = getelementptr inbounds i8, ptr %0, i64 160
  %5 = zext i32 %1 to i64
  %6 = getelementptr inbounds [3 x %struct.cli_sz_hash], ptr %4, i64 0, i64 %5, i32 2
  %7 = load i32, ptr %6, align 8
  %8 = icmp ne i32 %7, 0
  %9 = zext i1 %8 to i32
  br label %10

10:                                               ; preds = %3, %2
  %11 = phi i32 [ 0, %2 ], [ %9, %3 ]
  ret i32 %11
}